; Function Attrs: mustprogress uwtable
define noundef nonnull align 8 dereferenceable(56) ptr @_ZN32pxrInternal_v0_24__pxrReserved__24HdGpGenerativeProcedural26GetChildNamesDependencyKeyEv() local_unnamed_addr #1 align 2 personality ptr @__gxx_personality_v0 {
  %1 = alloca %"class.pxrInternal_v0_24__pxrReserved__::TfToken", align 8
  %2 = load atomic i8, ptr @_ZGVZN32pxrInternal_v0_24__pxrReserved__24HdGpGenerativeProcedural26GetChildNamesDependencyKeyEvE3loc acquire, align 8
  %3 = icmp eq i8 %2, 0
  br i1 %3, label %4, label %17, !prof !7

4:                                                ; preds = %0
  %5 = tail call i32 @__cxa_guard_acquire(ptr nonnull @_ZGVZN32pxrInternal_v0_24__pxrReserved__24HdGpGenerativeProcedural26GetChildNamesDependencyKeyEvE3loc) #18
  %.not = icmp eq i32 %5, 0
  br i1 %.not, label %17, label %6

6:                                                ; preds = %4
  invoke void @_ZN32pxrInternal_v0_24__pxrReserved__7TfTokenC1EPKc(ptr noundef nonnull align 8 dereferenceable(8) %1, ptr noundef nonnull @.str.5)
          to label %7 unwind label %18

7:                                                ; preds = %6
  invoke void @_ZN32pxrInternal_v0_24__pxrReserved__19HdDataSourceLocatorC1ERKNS_7TfTokenE(ptr noundef nonnull align 8 dereferenceable(56) @_ZZN32pxrInternal_v0_24__pxrReserved__24HdGpGenerativeProcedural26GetChildNamesDependencyKeyEvE3loc, ptr noundef nonnull align 8 dereferenceable(8) %1)
          to label %8 unwind label %20

8:                                                ; preds = %7
  %9 = load ptr, ptr %1, align 8
  %10 = ptrtoint ptr %9 to i64
  %11 = and i64 %10, 7
  %.not.i.i = icmp eq i64 %11, 0
  br i1 %.not.i.i, label %_ZN32pxrInternal_v0_24__pxrReserved__7TfTokenD2Ev.exit, label %12

12:                                               ; preds = %8
  %13 = and i64 %10, -8
  %14 = inttoptr i64 %13 to ptr
  %15 = atomicrmw sub ptr %14, i32 2 release, align 4
  br label %_ZN32pxrInternal_v0_24__pxrReserved__7TfTokenD2Ev.exit

_ZN32pxrInternal_v0_24__pxrReserved__7TfTokenD2Ev.exit: ; preds = %8, %12
  %16 = call i32 @__cxa_atexit(ptr nonnull @_ZN32pxrInternal_v0_24__pxrReserved__19HdDataSourceLocatorD2Ev, ptr nonnull @_ZZN32pxrInternal_v0_24__pxrReserved__24HdGpGenerativeProcedural26GetChildNamesDependencyKeyEvE3loc, ptr nonnull @__dso_handle) #18
  call void @__cxa_guard_release(ptr nonnull @_ZGVZN32pxrInternal_v0_24__pxrReserved__24HdGpGenerativeProcedural26GetChildNamesDependencyKeyEvE3loc) #18
  br label %17

17:                                               ; preds = %_ZN32pxrInternal_v0_24__pxrReserved__7TfTokenD2Ev.exit, %4, %0
  ret ptr @_ZZN32pxrInternal_v0_24__pxrReserved__24HdGpGenerativeProcedural26GetChildNamesDependencyKeyEvE3loc

18:                                               ; preds = %6
  %19 = landingpad { ptr, i32 }
          cleanup
  br label %_ZN32pxrInternal_v0_24__pxrReserved__7TfTokenD2Ev.exit4

20:                                               ; preds = %7
  %21 = landingpad { ptr, i32 }
          cleanup
  %22 = load ptr, ptr %1, align 8
  %23 = ptrtoint ptr %22 to i64
  %24 = and i64 %23, 7
  %.not.i.i3 = icmp eq i64 %24, 0
  br i1 %.not.i.i3, label %_ZN32pxrInternal_v0_24__pxrReserved__7TfTokenD2Ev.exit4, label %25

25:                                               ; preds = %20
  %26 = and i64 %23, -8
  %27 = inttoptr i64 %26 to ptr
  %28 = atomicrmw sub ptr %27, i32 2 release, align 4
  br label %_ZN32pxrInternal_v0_24__pxrReserved__7TfTokenD2Ev.exit4

_ZN32pxrInternal_v0_24__pxrReserved__7TfTokenD2Ev.exit4: ; preds = %25, %20, %18
  %.pn = phi { ptr, i32 } [ %19, %18 ], [ %21, %20 ], [ %21, %25 ]
  call void @__cxa_guard_abort(ptr nonnull @_ZGVZN32pxrInternal_v0_24__pxrReserved__24HdGpGenerativeProcedural26GetChildNamesDependencyKeyEvE3loc) #18
  resume { ptr, i32 } %.pn
}